target datalayout = "e-m:e-p270:32:32-p271:32:32-p272:64:64-i64:64-i128:128-f80:128-n8:16:32:64-S128"
target triple = "x86_64-pc-linux-gnu"

%struct.expert_field = type { i32, i32 }
%struct.egprs_ul_header_info_t = type { i16, i16, i8 }
%struct.RlcMacUplink_t = type { %union.anon.0, i32, i32 }
%union.anon.0 = type { %struct.Packet_Resource_Request_t }
%struct.Packet_Resource_Request_t = type { i8, i8, i8, i8, i8, i8, %struct.PacketResourceRequestID_t, i8, %struct.MS_Radio_Access_capability_t, %struct.Channel_Request_Description_t, i8, i8, i8, i8, i8, [8 x %struct.InterferenceMeasurementReport_t], i8, %struct.PRR_AdditionsR99_t }
%struct.PacketResourceRequestID_t = type { i8, %union.anon.5 }
%union.anon.5 = type { i32 }
%struct.MS_Radio_Access_capability_t = type { i8, [11 x %struct.MS_RA_capability_value_t] }
%struct.MS_RA_capability_value_t = type { i8, %union.anon.7 }
%union.anon.7 = type { %struct.Additional_access_technologies_t }
%struct.Additional_access_technologies_t = type { i8, [10 x %struct.Additional_access_technologies_struct_t] }
%struct.Additional_access_technologies_struct_t = type { i32, i8, i8 }
%struct.Channel_Request_Description_t = type { i8, i8, i32, i8, i16 }
%struct.InterferenceMeasurementReport_t = type { i8, i8 }
%struct.PRR_AdditionsR99_t = type { i8, %struct.EGPRS_BEP_LinkQualityMeasurements_t, i8, %struct.EGPRS_TimeslotLinkQualityMeasurements_t, i8, i8, i8, i8, i8, %struct.PRR_AdditionsR5_t }
%struct.EGPRS_BEP_LinkQualityMeasurements_t = type { i8, i8, i8, i8, i8, i8 }
%struct.EGPRS_TimeslotLinkQualityMeasurements_t = type { i8, [8 x %struct.BEP_MeasurementReport_t], i8, [8 x %struct.InterferenceMeasurementReport_t] }
%struct.BEP_MeasurementReport_t = type { i8, i8, %union.anon.8 }
%union.anon.8 = type { i8 }
%struct.PRR_AdditionsR5_t = type { i8, %struct.IU_Mode_Channel_Request_Desk_RNTI_t, i8, i8, i8, %struct.PRR_AdditionsR6_t }
%struct.IU_Mode_Channel_Request_Desk_RNTI_t = type { i8, i8, %struct.IU_Mode_Channel_Request_Desk_t }
%struct.IU_Mode_Channel_Request_Desk_t = type { i8, i8, i8, i8, i8 }
%struct.PRR_AdditionsR6_t = type { i8, %struct.Ext_Channel_Request_desc_t, i8, %struct.PRR_AdditionsR7_t }
%struct.Ext_Channel_Request_desc_t = type { i8, i8, i8, i8, i8, i8 }
%struct.PRR_AdditionsR7_t = type { i8, i8, %struct.EGPRS_BEP_LinkQualityMeasurements_type2_t, i8, %struct.EGPRS_TimeslotLinkQualityMeasurements_type2_t, i8, %struct.PRR_AdditionsR10_t }
%struct.EGPRS_BEP_LinkQualityMeasurements_type2_t = type { i8, i8, i8, i8, i8, i8, i8, i8, i8, i8, i8, i8, i8, i8, i8, i8, i8, i8, i8, i8, i8 }
%struct.EGPRS_TimeslotLinkQualityMeasurements_type2_t = type { i8, [8 x %struct.BEP_MeasurementReport_type2_t], i8, [8 x %struct.InterferenceMeasurementReport_type2_t] }
%struct.BEP_MeasurementReport_type2_t = type { i8, i8, i8 }
%struct.InterferenceMeasurementReport_type2_t = type { i8, i8 }
%struct.PRR_AdditionsR10_t = type { i8, i8, %struct.PRR_AdditionsR12_t }
%struct.PRR_AdditionsR12_t = type { i8, i8 }
%struct.length_indicator_t = type { i32, i8 }

@ett_gsm_rlcmac_data = internal global i32 0, align 4
@hf_e = internal global i32 0, align 4
@hf_li = internal global i32 0, align 4
@hf_ti = internal global i32 0, align 4
@hf_pfi = internal global i32 0, align 4
@hf_tlli = internal global i32 0, align 4
@ei_li = internal global %struct.expert_field zeroinitializer, align 4
@ei_gsm_rlcmac_unexpected_header_extension = internal global %struct.expert_field zeroinitializer, align 4
@proto_gsm_rlcmac = internal global i32 0, align 4
@.str.2977 = private unnamed_addr constant [45 x i8] c"GSM RLC/MAC: EGPRS UL DATA BLOCK %d (BSN %d)\00", align 1

; Function Attrs: null_pointer_is_valid sspstrong uwtable
define internal i32 @construct_egprs_data_segment_li_array(ptr noundef %0, ptr noundef %1, ptr noundef %2, i8 noundef zeroext %3, ptr noundef %4, ptr noundef %5, ptr noundef %6) #0 {
  %8 = alloca ptr, align 8
  %9 = alloca ptr, align 8
  %10 = alloca ptr, align 8
  %11 = alloca i8, align 1
  %12 = alloca ptr, align 8
  %13 = alloca ptr, align 8
  %14 = alloca ptr, align 8
  %15 = alloca i32, align 4
  %16 = alloca i8, align 1
  %17 = alloca ptr, align 8
  store ptr %0, ptr %8, align 8
  store ptr %1, ptr %9, align 8
  store ptr %2, ptr %10, align 8
  store i8 %3, ptr %11, align 1
  store ptr %4, ptr %12, align 8
  store ptr %5, ptr %13, align 8
  store ptr %6, ptr %14, align 8
  call void @llvm.lifetime.start.p0(i64 4, ptr %15) #5
  %18 = load i8, ptr %11, align 1
  %19 = zext i8 %18 to i32
  store i32 %19, ptr %15, align 4
  call void @llvm.lifetime.start.p0(i64 1, ptr %16) #5
  %20 = load ptr, ptr %12, align 8
  %21 = load i8, ptr %20, align 1
  store i8 %21, ptr %16, align 1
  call void @llvm.lifetime.start.p0(i64 8, ptr %17) #5
  %22 = load ptr, ptr %12, align 8
  store i8 0, ptr %22, align 1
  br label %23

23:                                               ; preds = %72, %7
  %24 = load ptr, ptr %14, align 8
  %25 = load i64, ptr %24, align 8
  %26 = icmp eq i64 %25, 0
  br i1 %26, label %27, label %75

27:                                               ; preds = %23
  %28 = load ptr, ptr %9, align 8
  %29 = load i32, ptr @hf_li, align 4
  %30 = load ptr, ptr %8, align 8
  %31 = load i32, ptr %15, align 4
  %32 = mul i32 %31, 8
  %33 = call ptr @proto_tree_add_bits_item(ptr noundef %28, i32 noundef %29, ptr noundef %30, i32 noundef %32, i32 noundef 7, i32 noundef 0)
  store ptr %33, ptr %17, align 8
  %34 = load ptr, ptr %9, align 8
  %35 = load i32, ptr @hf_e, align 4
  %36 = load ptr, ptr %8, align 8
  %37 = load i32, ptr %15, align 4
  %38 = mul i32 %37, 8
  %39 = add i32 %38, 7
  %40 = load ptr, ptr %14, align 8
  %41 = call ptr @proto_tree_add_bits_ret_val(ptr noundef %34, i32 noundef %35, ptr noundef %36, i32 noundef %39, i32 noundef 1, ptr noundef %40, i32 noundef 0)
  %42 = load ptr, ptr %12, align 8
  %43 = load i8, ptr %42, align 1
  %44 = zext i8 %43 to i32
  %45 = load i8, ptr %16, align 1
  %46 = zext i8 %45 to i32
  %47 = icmp slt i32 %44, %46
  br i1 %47, label %48, label %68

48:                                               ; preds = %27
  %49 = load i32, ptr %15, align 4
  %50 = load ptr, ptr %13, align 8
  %51 = load ptr, ptr %12, align 8
  %52 = load i8, ptr %51, align 1
  %53 = zext i8 %52 to i64
  %54 = getelementptr %struct.length_indicator_t, ptr %50, i64 %53
  %55 = getelementptr inbounds nuw %struct.length_indicator_t, ptr %54, i32 0, i32 0
  store i32 %49, ptr %55, align 4
  %56 = load ptr, ptr %8, align 8
  %57 = load i32, ptr %15, align 4
  %58 = call zeroext i8 @tvb_get_uint8(ptr noundef %56, i32 noundef %57)
  %59 = load ptr, ptr %13, align 8
  %60 = load ptr, ptr %12, align 8
  %61 = load i8, ptr %60, align 1
  %62 = zext i8 %61 to i64
  %63 = getelementptr %struct.length_indicator_t, ptr %59, i64 %62
  %64 = getelementptr inbounds nuw %struct.length_indicator_t, ptr %63, i32 0, i32 1
  store i8 %58, ptr %64, align 4
  %65 = load ptr, ptr %12, align 8
  %66 = load i8, ptr %65, align 1
  %67 = add i8 %66, 1
  store i8 %67, ptr %65, align 1
  br label %72

68:                                               ; preds = %27
  %69 = load ptr, ptr %10, align 8
  %70 = load ptr, ptr %17, align 8
  %71 = call ptr @expert_add_info(ptr noundef %69, ptr noundef %70, ptr noundef @ei_li)
  br label %72

72:                                               ; preds = %68, %48
  %73 = load i32, ptr %15, align 4
  %74 = add i32 %73, 1
  store i32 %74, ptr %15, align 4
  br label %23, !llvm.loop !11

75:                                               ; preds = %23
  %76 = load i32, ptr %15, align 4
  %77 = load i8, ptr %11, align 1
  %78 = zext i8 %77 to i32
  %79 = sub i32 %76, %78
  call void @llvm.lifetime.end.p0(i64 8, ptr %17) #5
  call void @llvm.lifetime.end.p0(i64 1, ptr %16) #5
  call void @llvm.lifetime.end.p0(i64 4, ptr %15) #5
  ret i32 %79
}

; Function Attrs: null_pointer_is_valid sspstrong uwtable
define internal void @dissect_egprs_ul_data_block(ptr noundef %0, ptr noundef %1, ptr noundef %2, ptr noundef %3, ptr noundef %4) #0 {
  %6 = alloca ptr, align 8
  %7 = alloca ptr, align 8
  %8 = alloca ptr, align 8
  %9 = alloca ptr, align 8
  %10 = alloca ptr, align 8
  %11 = alloca ptr, align 8
  %12 = alloca ptr, align 8
  %13 = alloca i32, align 4
  %14 = alloca [20 x %struct.length_indicator_t], align 16
  %15 = alloca i8, align 1
  %16 = alloca i64, align 8
  %17 = alloca i64, align 8
  %18 = alloca i16, align 2
  store ptr %0, ptr %6, align 8
  store ptr %1, ptr %7, align 8
  store ptr %2, ptr %8, align 8
  store ptr %3, ptr %9, align 8
  store ptr %4, ptr %10, align 8
  call void @llvm.lifetime.start.p0(i64 8, ptr %11) #5
  call void @llvm.lifetime.start.p0(i64 8, ptr %12) #5
  call void @llvm.lifetime.start.p0(i64 4, ptr %13) #5
  store i32 0, ptr %13, align 4
  call void @llvm.lifetime.start.p0(i64 160, ptr %14) #5
  call void @llvm.lifetime.start.p0(i64 1, ptr %15) #5
  store i8 20, ptr %15, align 1
  call void @llvm.lifetime.start.p0(i64 8, ptr %16) #5
  call void @llvm.lifetime.start.p0(i64 8, ptr %17) #5
  call void @llvm.lifetime.start.p0(i64 2, ptr %18) #5
  %19 = load ptr, ptr %9, align 8
  %20 = getelementptr inbounds nuw %struct.RlcMacUplink_t, ptr %19, i32 0, i32 2
  %21 = load i32, ptr %20, align 4
  %22 = and i32 %21, 2
  %23 = icmp ne i32 %22, 0
  br i1 %23, label %24, label %29

24:                                               ; preds = %5
  %25 = load ptr, ptr %10, align 8
  %26 = getelementptr inbounds nuw %struct.egprs_ul_header_info_t, ptr %25, i32 0, i32 1
  %27 = load i16, ptr %26, align 2
  %28 = zext i16 %27 to i32
  br label %34

29:                                               ; preds = %5
  %30 = load ptr, ptr %10, align 8
  %31 = getelementptr inbounds nuw %struct.egprs_ul_header_info_t, ptr %30, i32 0, i32 0
  %32 = load i16, ptr %31, align 2
  %33 = zext i16 %32 to i32
  br label %34

34:                                               ; preds = %29, %24
  %35 = phi i32 [ %28, %24 ], [ %33, %29 ]
  %36 = trunc i32 %35 to i16
  store i16 %36, ptr %18, align 2
  %37 = load ptr, ptr %8, align 8
  %38 = load i32, ptr @proto_gsm_rlcmac, align 4
  %39 = load ptr, ptr %6, align 8
  %40 = load i32, ptr %13, align 4
  %41 = load ptr, ptr %9, align 8
  %42 = getelementptr inbounds nuw %struct.RlcMacUplink_t, ptr %41, i32 0, i32 2
  %43 = load i32, ptr %42, align 4
  %44 = and i32 %43, 2
  %45 = icmp ne i32 %44, 0
  %46 = select i1 %45, i32 2, i32 1
  %47 = load i16, ptr %18, align 2
  %48 = zext i16 %47 to i32
  %49 = call ptr (ptr, i32, ptr, i32, i32, ptr, ...) @proto_tree_add_protocol_format(ptr noundef %37, i32 noundef %38, ptr noundef %39, i32 noundef %40, i32 noundef -1, ptr noundef @.str.2977, i32 noundef %46, i32 noundef %48)
  store ptr %49, ptr %11, align 8
  %50 = load ptr, ptr %11, align 8
  %51 = load i32, ptr @ett_gsm_rlcmac_data, align 4
  %52 = call ptr @proto_item_add_subtree(ptr noundef %50, i32 noundef %51)
  store ptr %52, ptr %12, align 8
  %53 = load ptr, ptr %12, align 8
  %54 = load i32, ptr @hf_ti, align 4
  %55 = load ptr, ptr %6, align 8
  %56 = call ptr @proto_tree_add_bits_ret_val(ptr noundef %53, i32 noundef %54, ptr noundef %55, i32 noundef 6, i32 noundef 1, ptr noundef %17, i32 noundef 0)
  %57 = load ptr, ptr %12, align 8
  %58 = load i32, ptr @hf_e, align 4
  %59 = load ptr, ptr %6, align 8
  %60 = call ptr @proto_tree_add_bits_ret_val(ptr noundef %57, i32 noundef %58, ptr noundef %59, i32 noundef 7, i32 noundef 1, ptr noundef %16, i32 noundef 0)
  %61 = load i32, ptr %13, align 4
  %62 = add i32 %61, 1
  store i32 %62, ptr %13, align 4
  %63 = load ptr, ptr %6, align 8
  %64 = load ptr, ptr %12, align 8
  %65 = load ptr, ptr %7, align 8
  %66 = load i32, ptr %13, align 4
  %67 = trunc i32 %66 to i8
  %68 = getelementptr inbounds [20 x %struct.length_indicator_t], ptr %14, i64 0, i64 0
  %69 = call i32 @construct_egprs_data_segment_li_array(ptr noundef %63, ptr noundef %64, ptr noundef %65, i8 noundef zeroext %67, ptr noundef %15, ptr noundef %68, ptr noundef %16)
  %70 = load i32, ptr %13, align 4
  %71 = add i32 %70, %69
  store i32 %71, ptr %13, align 4
  %72 = load i64, ptr %17, align 8
  %73 = icmp ne i64 %72, 0
  br i1 %73, label %74, label %82

74:                                               ; preds = %34
  %75 = load ptr, ptr %12, align 8
  %76 = load i32, ptr @hf_tlli, align 4
  %77 = load ptr, ptr %6, align 8
  %78 = load i32, ptr %13, align 4
  %79 = call ptr @proto_tree_add_item(ptr noundef %75, i32 noundef %76, ptr noundef %77, i32 noundef %78, i32 noundef 4, i32 noundef -2147483648)
  %80 = load i32, ptr %13, align 4
  %81 = add i32 %80, 4
  store i32 %81, ptr %13, align 4
  br label %82

82:                                               ; preds = %74, %34
  %83 = load ptr, ptr %10, align 8
  %84 = getelementptr inbounds nuw %struct.egprs_ul_header_info_t, ptr %83, i32 0, i32 2
  %85 = load i8, ptr %84, align 2
  %86 = icmp ne i8 %85, 0
  br i1 %86, label %87, label %103

87:                                               ; preds = %82
  %88 = load ptr, ptr %12, align 8
  %89 = load i32, ptr @hf_pfi, align 4
  %90 = load ptr, ptr %6, align 8
  %91 = load i32, ptr %13, align 4
  %92 = mul i32 %91, 8
  %93 = call ptr @proto_tree_add_bits_item(ptr noundef %88, i32 noundef %89, ptr noundef %90, i32 noundef %92, i32 noundef 7, i32 noundef 0)
  %94 = load ptr, ptr %12, align 8
  %95 = load i32, ptr @hf_e, align 4
  %96 = load ptr, ptr %6, align 8
  %97 = load i32, ptr %13, align 4
  %98 = mul i32 %97, 8
  %99 = add i32 %98, 7
  %100 = call ptr @proto_tree_add_bits_ret_val(ptr noundef %94, i32 noundef %95, ptr noundef %96, i32 noundef %99, i32 noundef 1, ptr noundef %16, i32 noundef 0)
  %101 = load i32, ptr %13, align 4
  %102 = add i32 %101, 1
  store i32 %102, ptr %13, align 4
  br label %103

103:                                              ; preds = %87, %82
  %104 = load i64, ptr %16, align 8
  %105 = icmp ne i64 %104, 0
  br i1 %105, label %106, label %117

106:                                              ; preds = %103
  %107 = load ptr, ptr %6, align 8
  %108 = load ptr, ptr %7, align 8
  %109 = load ptr, ptr %12, align 8
  %110 = load i32, ptr %13, align 4
  %111 = load ptr, ptr %6, align 8
  %112 = call i32 @tvb_reported_length(ptr noundef %111)
  %113 = trunc i32 %112 to i8
  %114 = load i8, ptr %15, align 1
  %115 = getelementptr inbounds [20 x %struct.length_indicator_t], ptr %14, i64 0, i64 0
  %116 = call zeroext i16 @dissect_egprs_data_segments(ptr noundef %107, ptr noundef %108, ptr noundef %109, i32 noundef %110, i8 noundef zeroext %113, i8 noundef zeroext %114, ptr noundef %115)
  br label %123

117:                                              ; preds = %103
  %118 = load ptr, ptr %8, align 8
  %119 = load ptr, ptr %7, align 8
  %120 = load ptr, ptr %6, align 8
  %121 = load i32, ptr %13, align 4
  %122 = call ptr @proto_tree_add_expert(ptr noundef %118, ptr noundef %119, ptr noundef @ei_gsm_rlcmac_unexpected_header_extension, ptr noundef %120, i32 noundef %121, i32 noundef 1)
  br label %123

123:                                              ; preds = %117, %106
  call void @llvm.lifetime.end.p0(i64 2, ptr %18) #5
  call void @llvm.lifetime.end.p0(i64 8, ptr %17) #5
  call void @llvm.lifetime.end.p0(i64 8, ptr %16) #5
  call void @llvm.lifetime.end.p0(i64 1, ptr %15) #5
  call void @llvm.lifetime.end.p0(i64 160, ptr %14) #5
  call void @llvm.lifetime.end.p0(i64 4, ptr %13) #5
  call void @llvm.lifetime.end.p0(i64 8, ptr %12) #5
  call void @llvm.lifetime.end.p0(i64 8, ptr %11) #5
  ret void
}