; Function Attrs: null_pointer_is_valid sspstrong uwtable
define internal fastcc void @dissect_egprs_ul_data_block(ptr noundef %0, ptr noundef %1, ptr noundef %2, i32 %.1176.val, ptr noundef readonly captures(none) %3) unnamed_addr #0 {
  %5 = alloca [20 x %struct.length_indicator_t], align 16
  %6 = alloca i64, align 8
  %7 = alloca i64, align 8
  call void @llvm.lifetime.start.p0(i64 160, ptr nonnull %5) #8
  call void @llvm.lifetime.start.p0(i64 8, ptr nonnull %6) #8
  call void @llvm.lifetime.start.p0(i64 8, ptr nonnull %7) #8
  %8 = and i32 %.1176.val, 2
  %.not = icmp eq i32 %8, 0
  %.in.in.idx = zext nneg i32 %8 to i64
  %.in.in = getelementptr inbounds nuw i8, ptr %3, i64 %.in.in.idx
  %.in39 = load i16, ptr %.in.in, align 2
  %9 = load i32, ptr @proto_gsm_rlcmac, align 4
  %10 = select i1 %.not, i32 1, i32 2
  %11 = zext i16 %.in39 to i32
  %12 = tail call ptr (ptr, i32, ptr, i32, i32, ptr, ...) @proto_tree_add_protocol_format(ptr noundef %2, i32 noundef %9, ptr noundef %0, i32 noundef 0, i32 noundef -1, ptr noundef nonnull @.str.2977, i32 noundef %10, i32 noundef %11)
  %13 = load i32, ptr @ett_gsm_rlcmac_data, align 4
  %14 = tail call ptr @proto_item_add_subtree(ptr noundef %12, i32 noundef %13)
  %15 = load i32, ptr @hf_ti, align 4
  %16 = call ptr @proto_tree_add_bits_ret_val(ptr noundef %14, i32 noundef %15, ptr noundef %0, i32 noundef 6, i32 noundef 1, ptr noundef nonnull %7, i32 noundef 0)
  %17 = load i32, ptr @hf_e, align 4
  %18 = call ptr @proto_tree_add_bits_ret_val(ptr noundef %14, i32 noundef %17, ptr noundef %0, i32 noundef 7, i32 noundef 1, ptr noundef nonnull %6, i32 noundef 0)
  %19 = load i64, ptr %6, align 8
  %20 = icmp eq i64 %19, 0
  br i1 %20, label %.lr.ph.i, label %construct_egprs_data_segment_li_array.exit

.lr.ph.i:                                         ; preds = %4, %36
  %.05 = phi i8 [ %.16, %36 ], [ 0, %4 ]
  %.025.i = phi i32 [ %37, %36 ], [ 1, %4 ]
  %21 = load i32, ptr @hf_li, align 4
  %22 = shl i32 %.025.i, 3
  %23 = call ptr @proto_tree_add_bits_item(ptr noundef %14, i32 noundef %21, ptr noundef %0, i32 noundef %22, i32 noundef 7, i32 noundef 0)
  %24 = load i32, ptr @hf_e, align 4
  %25 = or disjoint i32 %22, 7
  %26 = call ptr @proto_tree_add_bits_ret_val(ptr noundef %14, i32 noundef %24, ptr noundef %0, i32 noundef %25, i32 noundef 1, ptr noundef nonnull %6, i32 noundef 0)
  %27 = icmp ult i8 %.05, 20
  br i1 %27, label %28, label %34

28:                                               ; preds = %.lr.ph.i
  %29 = zext nneg i8 %.05 to i64
  %30 = getelementptr %struct.length_indicator_t, ptr %5, i64 %29
  store i32 %.025.i, ptr %30, align 8
  %31 = call zeroext i8 @tvb_get_uint8(ptr noundef %0, i32 noundef %.025.i)
  %32 = getelementptr %struct.length_indicator_t, ptr %5, i64 %29, i32 1
  store i8 %31, ptr %32, align 4
  %33 = add nuw nsw i8 %.05, 1
  br label %36

34:                                               ; preds = %.lr.ph.i
  %35 = call ptr @expert_add_info(ptr noundef %1, ptr noundef %23, ptr noundef nonnull @ei_li)
  br label %36

36:                                               ; preds = %34, %28
  %.16 = phi i8 [ %33, %28 ], [ %.05, %34 ]
  %37 = add i32 %.025.i, 1
  %38 = load i64, ptr %6, align 8
  %39 = icmp eq i64 %38, 0
  br i1 %39, label %.lr.ph.i, label %construct_egprs_data_segment_li_array.exit, !llvm.loop !6

construct_egprs_data_segment_li_array.exit:       ; preds = %36, %4
  %.2 = phi i8 [ 0, %4 ], [ %.16, %36 ]
  %.0.lcssa.i = phi i32 [ 0, %4 ], [ %.025.i, %36 ]
  %40 = add i32 %.0.lcssa.i, 1
  %41 = load i64, ptr %7, align 8
  %.not41 = icmp eq i64 %41, 0
  br i1 %.not41, label %46, label %42

42:                                               ; preds = %construct_egprs_data_segment_li_array.exit
  %43 = load i32, ptr @hf_tlli, align 4
  %44 = call ptr @proto_tree_add_item(ptr noundef %14, i32 noundef %43, ptr noundef %0, i32 noundef %40, i32 noundef 4, i32 noundef -2147483648)
  %45 = add i32 %.0.lcssa.i, 5
  br label %46

46:                                               ; preds = %42, %construct_egprs_data_segment_li_array.exit
  %.0 = phi i32 [ %45, %42 ], [ %40, %construct_egprs_data_segment_li_array.exit ]
  %47 = getelementptr inbounds nuw i8, ptr %3, i64 4
  %48 = load i8, ptr %47, align 2
  %.not42 = icmp eq i8 %48, 0
  br i1 %.not42, label %57, label %49

49:                                               ; preds = %46
  %50 = load i32, ptr @hf_pfi, align 4
  %51 = shl i32 %.0, 3
  %52 = call ptr @proto_tree_add_bits_item(ptr noundef %14, i32 noundef %50, ptr noundef %0, i32 noundef %51, i32 noundef 7, i32 noundef 0)
  %53 = load i32, ptr @hf_e, align 4
  %54 = or disjoint i32 %51, 7
  %55 = call ptr @proto_tree_add_bits_ret_val(ptr noundef %14, i32 noundef %53, ptr noundef %0, i32 noundef %54, i32 noundef 1, ptr noundef nonnull %6, i32 noundef 0)
  %56 = add i32 %.0, 1
  br label %57

57:                                               ; preds = %49, %46
  %.1 = phi i32 [ %56, %49 ], [ %.0, %46 ]
  %58 = load i64, ptr %6, align 8
  %.not43 = icmp eq i64 %58, 0
  br i1 %.not43, label %62, label %59

59:                                               ; preds = %57
  %60 = call i32 @tvb_reported_length(ptr noundef %0)
  %61 = trunc i32 %60 to i8
  call fastcc void @dissect_egprs_data_segments(ptr noundef %0, ptr noundef %1, ptr noundef %14, i32 noundef %.1, i8 noundef zeroext %61, i8 noundef zeroext %.2, ptr noundef nonnull %5)
  br label %64

62:                                               ; preds = %57
  %63 = call ptr @proto_tree_add_expert(ptr noundef %2, ptr noundef %1, ptr noundef nonnull @ei_gsm_rlcmac_unexpected_header_extension, ptr noundef %0, i32 noundef %.1, i32 noundef 1)
  br label %64

64:                                               ; preds = %62, %59
  call void @llvm.lifetime.end.p0(i64 8, ptr nonnull %7) #8
  call void @llvm.lifetime.end.p0(i64 8, ptr nonnull %6) #8
  call void @llvm.lifetime.end.p0(i64 160, ptr nonnull %5) #8
  ret void
}